target datalayout = "e-m:e-p270:32:32-p271:32:32-p272:64:64-i64:64-i128:128-f80:128-n8:16:32:64-S128"
target triple = "x86_64-unknown-linux-gnu"

%"class.rocksdb::Slice" = type { ptr, i64 }
%"class.rocksdb::IOStatus" = type { %"class.rocksdb::Status" }
%"class.rocksdb::Status" = type { i8, i8, i8, i8, i8, i8, %"class.std::unique_ptr" }
%"class.std::unique_ptr" = type { %"struct.std::__uniq_ptr_data" }
%"struct.std::__uniq_ptr_data" = type { %"class.std::__uniq_ptr_impl" }
%"class.std::__uniq_ptr_impl" = type { %"class.std::tuple" }
%"class.std::tuple" = type { %"struct.std::_Tuple_impl" }
%"struct.std::_Tuple_impl" = type { %"struct.std::_Head_base.1" }
%"struct.std::_Head_base.1" = type { ptr }
%"struct.rocksdb::FSReadRequest" = type { i64, i64, ptr, %"class.rocksdb::Slice", %"class.rocksdb::IOStatus", %"class.std::unique_ptr.44" }
%"class.std::unique_ptr.44" = type { %"struct.std::__uniq_ptr_data.45" }
%"struct.std::__uniq_ptr_data.45" = type { %"class.std::__uniq_ptr_impl.46" }
%"class.std::__uniq_ptr_impl.46" = type { %"class.std::tuple.47" }
%"class.std::tuple.47" = type { %"struct.std::_Tuple_impl.48" }
%"struct.std::_Tuple_impl.48" = type { %"struct.std::_Tuple_impl.49", %"struct.std::_Head_base.51" }
%"struct.std::_Tuple_impl.49" = type { %"struct.std::_Head_base.50" }
%"struct.std::_Head_base.50" = type { %"class.std::function" }
%"class.std::function" = type { %"class.std::_Function_base", ptr }
%"class.std::_Function_base" = type { %"union.std::_Any_data", ptr }
%"union.std::_Any_data" = type { %"union.std::_Nocopy_types" }
%"union.std::_Nocopy_types" = type { { i64, i64 } }
%"struct.std::_Head_base.51" = type { ptr }

; Function Attrs: mustprogress nounwind uwtable
define linkonce_odr noundef nonnull align 8 dereferenceable(8) ptr @_ZSt3minImERKT_S2_S2_(ptr noundef nonnull align 8 dereferenceable(8) %__a, ptr noundef nonnull align 8 dereferenceable(8) %__b) #1 comdat {
entry:
  %retval = alloca ptr, align 8
  %__a.addr = alloca ptr, align 8
  %__b.addr = alloca ptr, align 8
  store ptr %__a, ptr %__a.addr, align 8
  store ptr %__b, ptr %__b.addr, align 8
  %0 = load ptr, ptr %__b.addr, align 8
  %1 = load i64, ptr %0, align 8
  %2 = load ptr, ptr %__a.addr, align 8
  %3 = load i64, ptr %2, align 8
  %cmp = icmp ult i64 %1, %3
  br i1 %cmp, label %if.then, label %if.end

if.then:                                          ; preds = %entry
  %4 = load ptr, ptr %__b.addr, align 8
  store ptr %4, ptr %retval, align 8
  br label %return

if.end:                                           ; preds = %entry
  %5 = load ptr, ptr %__a.addr, align 8
  store ptr %5, ptr %retval, align 8
  br label %return

return:                                           ; preds = %if.end, %if.then
  %6 = load ptr, ptr %retval, align 8
  ret ptr %6
}

; Function Attrs: mustprogress nounwind uwtable
define linkonce_odr noundef nonnull align 8 dereferenceable(8) ptr @_ZSt3maxImERKT_S2_S2_(ptr noundef nonnull align 8 dereferenceable(8) %__a, ptr noundef nonnull align 8 dereferenceable(8) %__b) #1 comdat {
entry:
  %retval = alloca ptr, align 8
  %__a.addr = alloca ptr, align 8
  %__b.addr = alloca ptr, align 8
  store ptr %__a, ptr %__a.addr, align 8
  store ptr %__b, ptr %__b.addr, align 8
  %0 = load ptr, ptr %__a.addr, align 8
  %1 = load i64, ptr %0, align 8
  %2 = load ptr, ptr %__b.addr, align 8
  %3 = load i64, ptr %2, align 8
  %cmp = icmp ult i64 %1, %3
  br i1 %cmp, label %if.then, label %if.end

if.then:                                          ; preds = %entry
  %4 = load ptr, ptr %__b.addr, align 8
  store ptr %4, ptr %retval, align 8
  br label %return

if.end:                                           ; preds = %entry
  %5 = load ptr, ptr %__a.addr, align 8
  store ptr %5, ptr %retval, align 8
  br label %return

return:                                           ; preds = %if.end, %if.then
  %6 = load ptr, ptr %retval, align 8
  ret ptr %6
}

; Function Attrs: mustprogress nounwind uwtable
define noundef i64 @_ZN7rocksdb3EndERKNS_13FSReadRequestE(ptr noundef nonnull align 8 dereferenceable(96) %r) #1 {
entry:
  %r.addr = alloca ptr, align 8
  store ptr %r, ptr %r.addr, align 8
  %0 = load ptr, ptr %r.addr, align 8
  %offset = getelementptr inbounds %"struct.rocksdb::FSReadRequest", ptr %0, i32 0, i32 0
  %1 = load i64, ptr %offset, align 8
  %2 = load ptr, ptr %r.addr, align 8
  %len = getelementptr inbounds %"struct.rocksdb::FSReadRequest", ptr %2, i32 0, i32 1
  %3 = load i64, ptr %len, align 8
  %add = add i64 %1, %3
  ret i64 %add
}

; Function Attrs: mustprogress uwtable
define noundef zeroext i1 @_ZN7rocksdb8TryMergeEPNS_13FSReadRequestERKS0_(ptr noundef %dest, ptr noundef nonnull align 8 dereferenceable(96) %src) #0 {
entry:
  %retval = alloca i1, align 1
  %dest.addr = alloca ptr, align 8
  %src.addr = alloca ptr, align 8
  %dest_offset = alloca i64, align 8
  %src_offset = alloca i64, align 8
  %dest_end = alloca i64, align 8
  %src_end = alloca i64, align 8
  store ptr %dest, ptr %dest.addr, align 8
  store ptr %src, ptr %src.addr, align 8
  %0 = load ptr, ptr %dest.addr, align 8
  %offset = getelementptr inbounds %"struct.rocksdb::FSReadRequest", ptr %0, i32 0, i32 0
  %1 = load i64, ptr %offset, align 8
  store i64 %1, ptr %dest_offset, align 8
  %2 = load ptr, ptr %src.addr, align 8
  %offset1 = getelementptr inbounds %"struct.rocksdb::FSReadRequest", ptr %2, i32 0, i32 0
  %3 = load i64, ptr %offset1, align 8
  store i64 %3, ptr %src_offset, align 8
  %4 = load ptr, ptr %dest.addr, align 8
  %call = call noundef i64 @_ZN7rocksdb3EndERKNS_13FSReadRequestE(ptr noundef nonnull align 8 dereferenceable(96) %4)
  store i64 %call, ptr %dest_end, align 8
  %5 = load ptr, ptr %src.addr, align 8
  %call2 = call noundef i64 @_ZN7rocksdb3EndERKNS_13FSReadRequestE(ptr noundef nonnull align 8 dereferenceable(96) %5)
  store i64 %call2, ptr %src_end, align 8
  %call3 = call noundef nonnull align 8 dereferenceable(8) ptr @_ZSt3maxImERKT_S2_S2_(ptr noundef nonnull align 8 dereferenceable(8) %dest_offset, ptr noundef nonnull align 8 dereferenceable(8) %src_offset)
  %6 = load i64, ptr %call3, align 8
  %call4 = call noundef nonnull align 8 dereferenceable(8) ptr @_ZSt3minImERKT_S2_S2_(ptr noundef nonnull align 8 dereferenceable(8) %dest_end, ptr noundef nonnull align 8 dereferenceable(8) %src_end)
  %7 = load i64, ptr %call4, align 8
  %cmp = icmp ugt i64 %6, %7
  br i1 %cmp, label %if.then, label %if.end

if.then:                                          ; preds = %entry
  store i1 false, ptr %retval, align 1
  br label %return

if.end:                                           ; preds = %entry
  %call5 = call noundef nonnull align 8 dereferenceable(8) ptr @_ZSt3minImERKT_S2_S2_(ptr noundef nonnull align 8 dereferenceable(8) %dest_offset, ptr noundef nonnull align 8 dereferenceable(8) %src_offset)
  %8 = load i64, ptr %call5, align 8
  %9 = load ptr, ptr %dest.addr, align 8
  %offset6 = getelementptr inbounds %"struct.rocksdb::FSReadRequest", ptr %9, i32 0, i32 0
  store i64 %8, ptr %offset6, align 8
  %call7 = call noundef nonnull align 8 dereferenceable(8) ptr @_ZSt3maxImERKT_S2_S2_(ptr noundef nonnull align 8 dereferenceable(8) %dest_end, ptr noundef nonnull align 8 dereferenceable(8) %src_end)
  %10 = load i64, ptr %call7, align 8
  %11 = load ptr, ptr %dest.addr, align 8
  %offset8 = getelementptr inbounds %"struct.rocksdb::FSReadRequest", ptr %11, i32 0, i32 0
  %12 = load i64, ptr %offset8, align 8
  %sub = sub i64 %10, %12
  %13 = load ptr, ptr %dest.addr, align 8
  %len = getelementptr inbounds %"struct.rocksdb::FSReadRequest", ptr %13, i32 0, i32 1
  store i64 %sub, ptr %len, align 8
  store i1 true, ptr %retval, align 1
  br label %return

return:                                           ; preds = %if.end, %if.then
  %14 = load i1, ptr %retval, align 1
  ret i1 %14
}