; Function Attrs: mustprogress nofree norecurse nosync nounwind willreturn memory(argmem: readwrite) uwtable
define noundef zeroext i1 @_ZN7rocksdb8TryMergeEPNS_13FSReadRequestERKS0_(ptr nocapture noundef %dest, ptr nocapture noundef nonnull readonly align 8 dereferenceable(96) %src) local_unnamed_addr #9 {
entry:
  %0 = load i64, ptr %dest, align 8
  %1 = load i64, ptr %src, align 8
  %len.i = getelementptr inbounds i8, ptr %dest, i64 8
  %2 = load i64, ptr %len.i, align 8
  %add.i = add i64 %2, %0
  %len.i6 = getelementptr inbounds i8, ptr %src, i64 8
  %3 = load i64, ptr %len.i6, align 8
  %add.i7 = add i64 %3, %1
  %.sroa.speculated28 = tail call i64 @llvm.umax.i64(i64 %0, i64 %1)
  %.sroa.speculated17 = tail call i64 @llvm.umin.i64(i64 %add.i7, i64 %add.i)
  %cmp = icmp ule i64 %.sroa.speculated28, %.sroa.speculated17
  br i1 %cmp, label %if.end, label %return

if.end:                                           ; preds = %entry
  %.sroa.speculated25 = tail call i64 @llvm.umin.i64(i64 %1, i64 %0)
  store i64 %.sroa.speculated25, ptr %dest, align 8
  %.sroa.speculated = tail call i64 @llvm.umax.i64(i64 %add.i, i64 %add.i7)
  %sub = sub i64 %.sroa.speculated, %.sroa.speculated25
  store i64 %sub, ptr %len.i, align 8
  br label %return

return:                                           ; preds = %entry, %if.end
  ret i1 %cmp
}